; Function Attrs: null_pointer_is_valid sspstrong uwtable
define internal i32 @dissect_message_http(ptr noundef %0, ptr noundef readonly captures(none) %1, ptr noundef %2, ptr readnone captures(none) %3) #0 {
  %5 = alloca i32, align 4
  call void @llvm.lifetime.start.p0(i64 4, ptr nonnull %5) #21
  %6 = getelementptr inbounds nuw i8, ptr %1, i64 8
  %7 = load ptr, ptr %6, align 8
  tail call void @col_append_str(ptr noundef %7, i32 noundef 25, ptr noundef nonnull @.str.531)
  %.not = icmp eq ptr %2, null
  br i1 %.not, label %.loopexit, label %8

8:                                                ; preds = %4
  %9 = load i32, ptr @proto_message_http, align 4
  %10 = tail call ptr @proto_tree_add_item(ptr noundef nonnull %2, i32 noundef %9, ptr noundef %0, i32 noundef 0, i32 noundef -1, i32 noundef 0)
  %11 = load i32, ptr @ett_message_http, align 4
  %12 = tail call ptr @proto_item_add_subtree(ptr noundef %10, i32 noundef %11)
  %13 = tail call zeroext i1 @tvb_offset_exists(ptr noundef %0, i32 noundef 0)
  br i1 %13, label %.lr.ph, label %.loopexit

.lr.ph:                                           ; preds = %8, %17
  %.018 = phi i32 [ %19, %17 ], [ 0, %8 ]
  %14 = call i32 @tvb_ensure_captured_length_remaining(ptr noundef %0, i32 noundef %.018)
  %15 = call i32 @tvb_find_line_end(ptr noundef %0, i32 noundef %.018, i32 noundef %14, ptr noundef nonnull %5, i1 noundef zeroext false)
  %16 = icmp eq i32 %15, -1
  br i1 %16, label %.loopexit, label %17

17:                                               ; preds = %.lr.ph
  %18 = call ptr @proto_tree_add_format_text(ptr noundef %12, ptr noundef %0, i32 noundef %.018, i32 noundef %15)
  %19 = load i32, ptr %5, align 4
  %20 = call zeroext i1 @tvb_offset_exists(ptr noundef %0, i32 noundef %19)
  br i1 %20, label %.lr.ph, label %.loopexit, !llvm.loop !15

.loopexit:                                        ; preds = %.lr.ph, %17, %8, %4
  %21 = call i32 @tvb_captured_length(ptr noundef %0)
  call void @llvm.lifetime.end.p0(i64 4, ptr nonnull %5) #21
  ret i32 %21
}